target datalayout = "e-m:e-p270:32:32-p271:32:32-p272:64:64-i64:64-i128:128-f80:128-n8:16:32:64-S128"
target triple = "x86_64-pc-linux-gnu"

; Function Attrs: mustprogress nounwind ssp uwtable
define noundef i32 @_Z15planeBoxOverlapPdS_S_(ptr noundef %0, ptr noundef %1, ptr noundef %2) #1 {
  %4 = alloca i32, align 4
  %5 = alloca ptr, align 8
  %6 = alloca ptr, align 8
  %7 = alloca ptr, align 8
  %8 = alloca i32, align 4
  %9 = alloca [3 x double], align 16
  %10 = alloca [3 x double], align 16
  %11 = alloca double, align 8
  %12 = alloca i32, align 4
  store ptr %0, ptr %5, align 8, !tbaa !19
  store ptr %1, ptr %6, align 8, !tbaa !19
  store ptr %2, ptr %7, align 8, !tbaa !19
  call void @llvm.lifetime.start.p0(i64 4, ptr %8) #14
  call void @llvm.lifetime.start.p0(i64 24, ptr %9) #14
  call void @llvm.lifetime.start.p0(i64 24, ptr %10) #14
  call void @llvm.lifetime.start.p0(i64 8, ptr %11) #14
  store i32 0, ptr %8, align 4, !tbaa !25
  br label %13

13:                                               ; preds = %73, %3
  %14 = load i32, ptr %8, align 4, !tbaa !25
  %15 = icmp sle i32 %14, 2
  br i1 %15, label %16, label %76

16:                                               ; preds = %13
  %17 = load ptr, ptr %6, align 8, !tbaa !19
  %18 = load i32, ptr %8, align 4, !tbaa !25
  %19 = sext i32 %18 to i64
  %20 = getelementptr inbounds double, ptr %17, i64 %19
  %21 = load double, ptr %20, align 8, !tbaa !21
  store double %21, ptr %11, align 8, !tbaa !21
  %22 = load ptr, ptr %5, align 8, !tbaa !19
  %23 = load i32, ptr %8, align 4, !tbaa !25
  %24 = sext i32 %23 to i64
  %25 = getelementptr inbounds double, ptr %22, i64 %24
  %26 = load double, ptr %25, align 8, !tbaa !21
  %27 = fcmp ogt double %26, 0.000000e+00
  br i1 %27, label %28, label %50

28:                                               ; preds = %16
  %29 = load ptr, ptr %7, align 8, !tbaa !19
  %30 = load i32, ptr %8, align 4, !tbaa !25
  %31 = sext i32 %30 to i64
  %32 = getelementptr inbounds double, ptr %29, i64 %31
  %33 = load double, ptr %32, align 8, !tbaa !21
  %34 = fneg double %33
  %35 = load double, ptr %11, align 8, !tbaa !21
  %36 = fsub double %34, %35
  %37 = load i32, ptr %8, align 4, !tbaa !25
  %38 = sext i32 %37 to i64
  %39 = getelementptr inbounds [3 x double], ptr %9, i64 0, i64 %38
  store double %36, ptr %39, align 8, !tbaa !21
  %40 = load ptr, ptr %7, align 8, !tbaa !19
  %41 = load i32, ptr %8, align 4, !tbaa !25
  %42 = sext i32 %41 to i64
  %43 = getelementptr inbounds double, ptr %40, i64 %42
  %44 = load double, ptr %43, align 8, !tbaa !21
  %45 = load double, ptr %11, align 8, !tbaa !21
  %46 = fsub double %44, %45
  %47 = load i32, ptr %8, align 4, !tbaa !25
  %48 = sext i32 %47 to i64
  %49 = getelementptr inbounds [3 x double], ptr %10, i64 0, i64 %48
  store double %46, ptr %49, align 8, !tbaa !21
  br label %72

50:                                               ; preds = %16
  %51 = load ptr, ptr %7, align 8, !tbaa !19
  %52 = load i32, ptr %8, align 4, !tbaa !25
  %53 = sext i32 %52 to i64
  %54 = getelementptr inbounds double, ptr %51, i64 %53
  %55 = load double, ptr %54, align 8, !tbaa !21
  %56 = load double, ptr %11, align 8, !tbaa !21
  %57 = fsub double %55, %56
  %58 = load i32, ptr %8, align 4, !tbaa !25
  %59 = sext i32 %58 to i64
  %60 = getelementptr inbounds [3 x double], ptr %9, i64 0, i64 %59
  store double %57, ptr %60, align 8, !tbaa !21
  %61 = load ptr, ptr %7, align 8, !tbaa !19
  %62 = load i32, ptr %8, align 4, !tbaa !25
  %63 = sext i32 %62 to i64
  %64 = getelementptr inbounds double, ptr %61, i64 %63
  %65 = load double, ptr %64, align 8, !tbaa !21
  %66 = fneg double %65
  %67 = load double, ptr %11, align 8, !tbaa !21
  %68 = fsub double %66, %67
  %69 = load i32, ptr %8, align 4, !tbaa !25
  %70 = sext i32 %69 to i64
  %71 = getelementptr inbounds [3 x double], ptr %10, i64 0, i64 %70
  store double %68, ptr %71, align 8, !tbaa !21
  br label %72

72:                                               ; preds = %50, %28
  br label %73

73:                                               ; preds = %72
  %74 = load i32, ptr %8, align 4, !tbaa !25
  %75 = add nsw i32 %74, 1
  store i32 %75, ptr %8, align 4, !tbaa !25
  br label %13, !llvm.loop !27

76:                                               ; preds = %13
  %77 = load ptr, ptr %5, align 8, !tbaa !19
  %78 = getelementptr inbounds double, ptr %77, i64 0
  %79 = load double, ptr %78, align 8, !tbaa !21
  %80 = getelementptr inbounds [3 x double], ptr %9, i64 0, i64 0
  %81 = load double, ptr %80, align 16, !tbaa !21
  %82 = load ptr, ptr %5, align 8, !tbaa !19
  %83 = getelementptr inbounds double, ptr %82, i64 1
  %84 = load double, ptr %83, align 8, !tbaa !21
  %85 = getelementptr inbounds [3 x double], ptr %9, i64 0, i64 1
  %86 = load double, ptr %85, align 8, !tbaa !21
  %87 = fmul double %84, %86
  %88 = call double @llvm.fmuladd.f64(double %79, double %81, double %87)
  %89 = load ptr, ptr %5, align 8, !tbaa !19
  %90 = getelementptr inbounds double, ptr %89, i64 2
  %91 = load double, ptr %90, align 8, !tbaa !21
  %92 = getelementptr inbounds [3 x double], ptr %9, i64 0, i64 2
  %93 = load double, ptr %92, align 16, !tbaa !21
  %94 = call double @llvm.fmuladd.f64(double %91, double %93, double %88)
  %95 = fcmp ogt double %94, 0.000000e+00
  br i1 %95, label %96, label %97

96:                                               ; preds = %76
  store i32 0, ptr %4, align 4
  store i32 1, ptr %12, align 4
  br label %119

97:                                               ; preds = %76
  %98 = load ptr, ptr %5, align 8, !tbaa !19
  %99 = getelementptr inbounds double, ptr %98, i64 0
  %100 = load double, ptr %99, align 8, !tbaa !21
  %101 = getelementptr inbounds [3 x double], ptr %10, i64 0, i64 0
  %102 = load double, ptr %101, align 16, !tbaa !21
  %103 = load ptr, ptr %5, align 8, !tbaa !19
  %104 = getelementptr inbounds double, ptr %103, i64 1
  %105 = load double, ptr %104, align 8, !tbaa !21
  %106 = getelementptr inbounds [3 x double], ptr %10, i64 0, i64 1
  %107 = load double, ptr %106, align 8, !tbaa !21
  %108 = fmul double %105, %107
  %109 = call double @llvm.fmuladd.f64(double %100, double %102, double %108)
  %110 = load ptr, ptr %5, align 8, !tbaa !19
  %111 = getelementptr inbounds double, ptr %110, i64 2
  %112 = load double, ptr %111, align 8, !tbaa !21
  %113 = getelementptr inbounds [3 x double], ptr %10, i64 0, i64 2
  %114 = load double, ptr %113, align 16, !tbaa !21
  %115 = call double @llvm.fmuladd.f64(double %112, double %114, double %109)
  %116 = fcmp oge double %115, 0.000000e+00
  br i1 %116, label %117, label %118

117:                                              ; preds = %97
  store i32 1, ptr %4, align 4
  store i32 1, ptr %12, align 4
  br label %119

118:                                              ; preds = %97
  store i32 0, ptr %4, align 4
  store i32 1, ptr %12, align 4
  br label %119

119:                                              ; preds = %118, %117, %96
  call void @llvm.lifetime.end.p0(i64 8, ptr %11) #14
  call void @llvm.lifetime.end.p0(i64 24, ptr %10) #14
  call void @llvm.lifetime.end.p0(i64 24, ptr %9) #14
  call void @llvm.lifetime.end.p0(i64 4, ptr %8) #14
  %120 = load i32, ptr %4, align 4
  ret i32 %120
}