; Function Attrs: mustprogress nofree norecurse nosync nounwind ssp willreturn memory(argmem: read) uwtable
define noundef range(i32 0, 2) i32 @_Z15planeBoxOverlapPdS_S_(ptr noundef readonly captures(none) %0, ptr noundef readonly captures(none) %1, ptr noundef readonly captures(none) %2) local_unnamed_addr #1 {
  %4 = alloca [3 x double], align 16
  %5 = alloca [3 x double], align 16
  call void @llvm.lifetime.start.p0(i64 24, ptr nonnull %4) #5
  call void @llvm.lifetime.start.p0(i64 24, ptr nonnull %5) #5
  br label %6

6:                                                ; preds = %3, %6
  %indvars.iv = phi i64 [ 0, %3 ], [ %indvars.iv.next, %6 ]
  %7 = getelementptr inbounds nuw double, ptr %1, i64 %indvars.iv
  %8 = load double, ptr %7, align 8, !tbaa !4
  %9 = getelementptr inbounds nuw double, ptr %0, i64 %indvars.iv
  %10 = load double, ptr %9, align 8, !tbaa !4
  %11 = fcmp ogt double %10, 0.000000e+00
  %12 = getelementptr inbounds nuw double, ptr %2, i64 %indvars.iv
  %13 = load double, ptr %12, align 8, !tbaa !4
  %14 = fneg double %13
  %.33 = select i1 %11, double %14, double %13
  %.34 = select i1 %11, double %13, double %14
  %.sink = fsub double %.34, %8
  %.sink31 = fsub double %.33, %8
  %15 = getelementptr inbounds nuw [3 x double], ptr %4, i64 0, i64 %indvars.iv
  store double %.sink31, ptr %15, align 8, !tbaa !4
  %16 = getelementptr inbounds nuw [3 x double], ptr %5, i64 0, i64 %indvars.iv
  store double %.sink, ptr %16, align 8, !tbaa !4
  %indvars.iv.next = add nuw nsw i64 %indvars.iv, 1
  %exitcond.not = icmp eq i64 %indvars.iv.next, 3
  br i1 %exitcond.not, label %17, label %6, !llvm.loop !8

17:                                               ; preds = %6
  %18 = load double, ptr %0, align 8, !tbaa !4
  %19 = load double, ptr %4, align 16, !tbaa !4
  %20 = getelementptr inbounds nuw i8, ptr %0, i64 8
  %21 = load double, ptr %20, align 8, !tbaa !4
  %22 = getelementptr inbounds nuw i8, ptr %4, i64 8
  %23 = load double, ptr %22, align 8, !tbaa !4
  %24 = fmul double %21, %23
  %25 = tail call double @llvm.fmuladd.f64(double %18, double %19, double %24)
  %26 = getelementptr inbounds nuw i8, ptr %0, i64 16
  %27 = load double, ptr %26, align 8, !tbaa !4
  %28 = getelementptr inbounds nuw i8, ptr %4, i64 16
  %29 = load double, ptr %28, align 16, !tbaa !4
  %30 = tail call double @llvm.fmuladd.f64(double %27, double %29, double %25)
  %31 = fcmp ogt double %30, 0.000000e+00
  br i1 %31, label %42, label %32

32:                                               ; preds = %17
  %33 = load double, ptr %5, align 16, !tbaa !4
  %34 = getelementptr inbounds nuw i8, ptr %5, i64 8
  %35 = load double, ptr %34, align 8, !tbaa !4
  %36 = fmul double %21, %35
  %37 = tail call double @llvm.fmuladd.f64(double %18, double %33, double %36)
  %38 = getelementptr inbounds nuw i8, ptr %5, i64 16
  %39 = load double, ptr %38, align 16, !tbaa !4
  %40 = tail call double @llvm.fmuladd.f64(double %27, double %39, double %37)
  %41 = fcmp oge double %40, 0.000000e+00
  %. = zext i1 %41 to i32
  br label %42

42:                                               ; preds = %32, %17
  %.0 = phi i32 [ 0, %17 ], [ %., %32 ]
  call void @llvm.lifetime.end.p0(i64 24, ptr nonnull %5) #5
  call void @llvm.lifetime.end.p0(i64 24, ptr nonnull %4) #5
  ret i32 %.0
}